(lp0
F1.7045454545454546
aF0.0
aF46.02272727272727
aF2.272727272727273
aF0.7102272727272727
aF0.1590909090909091
aF0.6704545454545454
aF0.0
aF0.0
aF0.0
aF0.0
aF0.0
aF0.011363636363636364
aF0.0
aF0.0
aF0.0
aF0.0
aF0.0
aF0.0
aF0.0
aF0.0
aF0.0
aF0.0
aF0.0
aF0.26136363636363635
aF0.0
aF0.0
aF0.0
aF0.0
aF0.0
aF0.0
aF0.0
aF0.011363636363636364
aF0.11363636363636363
aF0.0
aF0.0
aF0.0
aF0.0
aF0.0
aF0.0
aF0.0
aF0.0
aF0.005681818181818182
aF0.0
aF0.0
aF0.0
aF0.0
aF0.0
aF0.0
aF0.0
aF0.0
aF0.0
aF0.0
aF0.0
aF0.0
aF0.0
aF0.0
aF0.0
aF0.0
aF0.05113636363636364
aF0.05113636363636364
aF0.0
aF0.028409090909090908
aF0.0
aF0.0
aF0.0625
aF0.0
aF0.0
aF0.0
aF0.0
aF0.0
aF0.0
aF0.0
aF0.022727272727272728
aF0.0
aF0.0
aF0.0
aF0.0
aF0.0
aF0.03409090909090909
aF0.0
aF0.0
aF0.0
aF0.0
aF0.0
aF0.0
aF0.0
aF0.0
aF0.0
aF0.0
aF0.0
aF0.0
aF0.0
aF0.0
aF0.0
aF0.0
aF0.0
aF0.0
aF0.0
aF0.0
aF0.0
aF0.0
aF0.0
aF0.0
aF0.028409090909090908
aF0.028409090909090908
aF0.0
aF0.0
aF0.011363636363636364
aF0.011363636363636364
aF0.0
aF0.0
aF0.0
aF0.0
aF0.0
aF0.0
aF0.0
aF0.0
aF0.0
aF0.0
aF0.005681818181818182
aF0.0
aF0.0
aF0.0
aF0.0
aF0.0
aF0.0
aF0.0
aF0.0
aF0.0
aF0.0
aF0.0
aF0.0
aF0.0
aF0.0
aF0.0
aF0.0
aF0.0
aF0.0
aF0.0
aF0.0
aF0.0
aF0.017045454545454544
aF0.375
aF0.1590909090909091
aF0.0
aF0.0
aF0.0
aF0.0
aF0.0
aF0.0
aF0.0
aF0.011363636363636364
aF0.011363636363636364
aF0.005681818181818182
aF0.005681818181818182
aF0.0
aF0.0
aF0.0
a.